; Function Attrs: mustprogress nofree norecurse nosync nounwind willreturn memory(argmem: read) uwtable
define dso_local noundef range(i32 0, 5) i32 @_ZNK16btBU_Simplex1to412getNumPlanesEv(ptr noundef nonnull readonly align 8 captures(none) dereferenceable(184) %0) unnamed_addr #3 align 2 {
  %2 = getelementptr inbounds nuw i8, ptr %0, i64 116
  %3 = load i32, ptr %2, align 4, !tbaa !7
  %switch.selectcmp = icmp eq i32 %3, 3
  %switch.select = select i1 %switch.selectcmp, i32 2, i32 0
  %switch.selectcmp1 = icmp eq i32 %3, 4
  %switch.select2 = select i1 %switch.selectcmp1, i32 4, i32 %switch.select
  ret i32 %switch.select2
}